; Function Attrs: inlinehint nofree norecurse nosync nounwind memory(argmem: readwrite) uwtable
define internal void @avg_pixels8_xy2_8_c(ptr noundef captures(none) %0, ptr noundef readonly captures(none) %1, i64 noundef %2, i32 noundef %3) #2 {
  %5 = icmp sgt i32 %3, 0
  %6 = add nsw i32 %3, 1
  %7 = sext i32 %6 to i64
  %8 = mul nsw i64 %2, %7
  %9 = sub nsw i64 4, %8
  %10 = sext i32 %3 to i64
  %11 = mul nsw i64 %2, %10
  %12 = sub nsw i64 4, %11
  br i1 %5, label %.lr.ph.us, label %.split70.us

.lr.ph.us:                                        ; preds = %4, %._crit_edge.us
  %.068.us = phi ptr [ %75, %._crit_edge.us ], [ %0, %4 ]
  %.05067.us = phi ptr [ %74, %._crit_edge.us ], [ %1, %4 ]
  %13 = phi i1 [ false, %._crit_edge.us ], [ true, %4 ]
  %14 = load i32, ptr %.05067.us, align 1, !tbaa !8
  %15 = getelementptr inbounds nuw i8, ptr %.05067.us, i64 1
  %16 = load i32, ptr %15, align 1, !tbaa !8
  %17 = and i32 %14, 50529027
  %18 = and i32 %16, 50529027
  %19 = add nuw nsw i32 %17, 33686018
  %20 = add nuw nsw i32 %19, %18
  %21 = lshr i32 %14, 2
  %22 = and i32 %21, 1061109567
  %23 = lshr i32 %16, 2
  %24 = and i32 %23, 1061109567
  %narrow.us = add nuw nsw i32 %24, %22
  %.15159.us = getelementptr inbounds i8, ptr %.05067.us, i64 %2
  br label %25

25:                                               ; preds = %.lr.ph.us, %25
  %.15164.us = phi ptr [ %.15159.us, %.lr.ph.us ], [ %.151.us, %25 ]
  %.163.us = phi ptr [ %.068.us, %.lr.ph.us ], [ %71, %25 ]
  %.05362.us = phi i32 [ 0, %.lr.ph.us ], [ %72, %25 ]
  %.05461.us = phi i32 [ %narrow.us, %.lr.ph.us ], [ %narrow58.us, %25 ]
  %.05560.us = phi i32 [ %20, %.lr.ph.us ], [ %55, %25 ]
  %26 = load i32, ptr %.15164.us, align 1, !tbaa !8
  %27 = getelementptr inbounds nuw i8, ptr %.15164.us, i64 1
  %28 = load i32, ptr %27, align 1, !tbaa !8
  %29 = and i32 %26, 50529027
  %30 = and i32 %28, 50529027
  %31 = add nuw nsw i32 %30, %29
  %32 = lshr i32 %26, 2
  %33 = and i32 %32, 1061109567
  %34 = lshr i32 %28, 2
  %35 = and i32 %34, 1061109567
  %narrow57.us = add nuw nsw i32 %35, %33
  %36 = load i32, ptr %.163.us, align 4, !tbaa !9
  %37 = add nuw i32 %narrow57.us, %.05461.us
  %38 = add nuw nsw i32 %31, %.05560.us
  %39 = lshr i32 %38, 2
  %40 = and i32 %39, 252645135
  %41 = add i32 %37, %40
  %42 = or i32 %41, %36
  %43 = xor i32 %41, %36
  %44 = lshr i32 %43, 1
  %45 = and i32 %44, 2139062143
  %46 = sub i32 %42, %45
  store i32 %46, ptr %.163.us, align 4, !tbaa !9
  %47 = getelementptr inbounds i8, ptr %.15164.us, i64 %2
  %48 = getelementptr inbounds i8, ptr %.163.us, i64 %2
  %49 = load i32, ptr %47, align 1, !tbaa !8
  %50 = getelementptr inbounds nuw i8, ptr %47, i64 1
  %51 = load i32, ptr %50, align 1, !tbaa !8
  %52 = and i32 %49, 50529027
  %53 = and i32 %51, 50529027
  %54 = add nuw nsw i32 %52, 33686018
  %55 = add nuw nsw i32 %54, %53
  %56 = lshr i32 %49, 2
  %57 = and i32 %56, 1061109567
  %58 = lshr i32 %51, 2
  %59 = and i32 %58, 1061109567
  %narrow58.us = add nuw nsw i32 %59, %57
  %60 = load i32, ptr %48, align 4, !tbaa !9
  %61 = add nuw i32 %narrow58.us, %narrow57.us
  %62 = add nuw nsw i32 %55, %31
  %63 = lshr i32 %62, 2
  %64 = and i32 %63, 117901063
  %65 = add i32 %61, %64
  %66 = or i32 %65, %60
  %67 = xor i32 %65, %60
  %68 = lshr i32 %67, 1
  %69 = and i32 %68, 2139062143
  %70 = sub i32 %66, %69
  store i32 %70, ptr %48, align 4, !tbaa !9
  %71 = getelementptr inbounds i8, ptr %48, i64 %2
  %72 = add nuw nsw i32 %.05362.us, 2
  %.151.us = getelementptr inbounds i8, ptr %47, i64 %2
  %73 = icmp slt i32 %72, %3
  br i1 %73, label %25, label %._crit_edge.us, !llvm.loop !29

._crit_edge.us:                                   ; preds = %25
  %74 = getelementptr inbounds i8, ptr %.151.us, i64 %9
  %75 = getelementptr inbounds i8, ptr %71, i64 %12
  br i1 %13, label %.lr.ph.us, label %.split70.us, !llvm.loop !30

.split70.us:                                      ; preds = %._crit_edge.us, %4
  ret void
}